; Function Attrs: nounwind uwtable
define noundef ptr @PQconnectStart(ptr noundef %0) local_unnamed_addr #0 {
  %2 = tail call ptr @pqMakeEmptyPGconn()
  %3 = icmp eq ptr %2, null
  br i1 %3, label %pqConnectDBStart.exit, label %4

4:                                                ; preds = %1
  %5 = tail call fastcc zeroext i1 @connectOptions1(ptr noundef %2, ptr noundef %0)
  br i1 %5, label %6, label %pqConnectDBStart.exit

6:                                                ; preds = %4
  %7 = tail call zeroext i1 @pqConnectOptions2(ptr noundef nonnull %2)
  br i1 %7, label %8, label %pqConnectDBStart.exit

8:                                                ; preds = %6
  %9 = getelementptr inbounds nuw i8, ptr %2, i64 434
  %10 = load i8, ptr %9, align 2, !range !13, !noundef !14
  %11 = trunc nuw i8 %10 to i1
  br i1 %11, label %12, label %37

12:                                               ; preds = %8
  %13 = tail call zeroext i1 @pg_link_canary_is_frontend() #25
  br i1 %13, label %16, label %14

14:                                               ; preds = %12
  %15 = getelementptr inbounds nuw i8, ptr %2, i64 1120
  tail call void @appendPQExpBufferStr(ptr noundef nonnull %15, ptr noundef nonnull @.str.56) #25
  br label %37

16:                                               ; preds = %12
  %17 = getelementptr inbounds nuw i8, ptr %2, i64 1020
  store i32 0, ptr %17, align 4
  %18 = getelementptr inbounds nuw i8, ptr %2, i64 1016
  store i32 0, ptr %18, align 8
  %19 = getelementptr inbounds nuw i8, ptr %2, i64 1012
  store i32 0, ptr %19, align 4
  %20 = getelementptr inbounds nuw i8, ptr %2, i64 1036
  store i32 0, ptr %20, align 4
  %21 = getelementptr inbounds nuw i8, ptr %2, i64 344
  %22 = load i8, ptr %21, align 8, !range !13, !noundef !14
  %23 = trunc nuw i8 %22 to i1
  br i1 %23, label %28, label %24

24:                                               ; preds = %16
  %25 = getelementptr inbounds nuw i8, ptr %2, i64 476
  store i32 -1, ptr %25, align 4
  %26 = getelementptr inbounds nuw i8, ptr %2, i64 877
  store i8 1, ptr %26, align 1
  %27 = getelementptr inbounds nuw i8, ptr %2, i64 876
  store i8 0, ptr %27, align 4
  br label %28

28:                                               ; preds = %24, %16
  %29 = getelementptr inbounds nuw i8, ptr %2, i64 416
  store i32 8, ptr %29, align 8
  %30 = getelementptr inbounds nuw i8, ptr %2, i64 868
  %31 = load i32, ptr %30, align 4
  %32 = icmp eq i32 %31, 6
  br i1 %32, label %33, label %34

33:                                               ; preds = %28
  store i32 5, ptr %30, align 4
  br label %34

34:                                               ; preds = %33, %28
  %35 = tail call i32 @PQconnectPoll(ptr noundef nonnull %2)
  %36 = icmp eq i32 %35, 2
  br i1 %36, label %pqConnectDBStart.exit, label %37

37:                                               ; preds = %8, %14, %34
  tail call void @pqDropConnection(ptr noundef nonnull %2, i1 noundef zeroext true)
  %38 = getelementptr inbounds nuw i8, ptr %2, i64 416
  store i32 1, ptr %38, align 8
  br label %pqConnectDBStart.exit

pqConnectDBStart.exit:                            ; preds = %34, %37, %6, %4, %1
  ret ptr %2
}